target datalayout = "e-m:e-p270:32:32-p271:32:32-p272:64:64-i64:64-i128:128-f80:128-n8:16:32:64-S128"
target triple = "x86_64-pc-linux-gnu"

@ff_h264_check_intra4x4_pred_mode.top = internal constant [12 x i8] c"\FF\00\09\FF\FF\FF\FF\FF\00\00\00\00", align 1
@ff_h264_check_intra4x4_pred_mode.left = internal constant [12 x i8] c"\00\FF\0A\00\FF\FF\FF\00\FF\0B\00\00", align 1
@scan8 = internal constant [51 x i8] c"\0C\0D\14\15\0E\0F\16\17\1C\1D$%\1E\1F&'45<=67>?DELMFGNO\\]de^_fglmtunovw\00(P", align 16
@.str.3 = private unnamed_addr constant [51 x i8] c"top block unavailable for requested intra mode %d\0A\00", align 1
@ff_h264_check_intra4x4_pred_mode.mask = internal constant [4 x i32] [i32 32768, i32 8192, i32 128, i32 32], align 16
@.str.4 = private unnamed_addr constant [55 x i8] c"left block unavailable for requested intra4x4 mode %d\0A\00", align 1

; Function Attrs: nounwind uwtable
define i32 @ff_h264_check_intra4x4_pred_mode(ptr noundef %0, ptr noundef %1, i32 noundef %2, i32 noundef %3) #0 {
  %5 = alloca i32, align 4
  %6 = alloca ptr, align 8
  %7 = alloca ptr, align 8
  %8 = alloca i32, align 4
  %9 = alloca i32, align 4
  %10 = alloca i32, align 4
  %11 = alloca i32, align 4
  %12 = alloca i32, align 4
  %13 = alloca i32, align 4
  store ptr %0, ptr %6, align 8, !tbaa !41
  store ptr %1, ptr %7, align 8, !tbaa !17
  store i32 %2, ptr %8, align 4, !tbaa !13
  store i32 %3, ptr %9, align 4, !tbaa !13
  call void @llvm.lifetime.start.p0(i64 4, ptr %10) #9
  %14 = load i32, ptr %8, align 4, !tbaa !13
  %15 = and i32 %14, 32768
  %16 = icmp ne i32 %15, 0
  br i1 %16, label %61, label %17

17:                                               ; preds = %4
  store i32 0, ptr %10, align 4, !tbaa !13
  br label %18

18:                                               ; preds = %57, %17
  %19 = load i32, ptr %10, align 4, !tbaa !13
  %20 = icmp slt i32 %19, 4
  br i1 %20, label %21, label %60

21:                                               ; preds = %18
  call void @llvm.lifetime.start.p0(i64 4, ptr %11) #9
  %22 = load ptr, ptr %6, align 8, !tbaa !41
  %23 = load i8, ptr @scan8, align 16, !tbaa !40
  %24 = zext i8 %23 to i32
  %25 = load i32, ptr %10, align 4, !tbaa !13
  %26 = add nsw i32 %24, %25
  %27 = sext i32 %26 to i64
  %28 = getelementptr inbounds i8, ptr %22, i64 %27
  %29 = load i8, ptr %28, align 1, !tbaa !40
  %30 = sext i8 %29 to i64
  %31 = getelementptr inbounds [12 x i8], ptr @ff_h264_check_intra4x4_pred_mode.top, i64 0, i64 %30
  %32 = load i8, ptr %31, align 1, !tbaa !40
  %33 = sext i8 %32 to i32
  store i32 %33, ptr %11, align 4, !tbaa !13
  %34 = load i32, ptr %11, align 4, !tbaa !13
  %35 = icmp slt i32 %34, 0
  br i1 %35, label %36, label %39

36:                                               ; preds = %21
  %37 = load ptr, ptr %7, align 8, !tbaa !17
  %38 = load i32, ptr %11, align 4, !tbaa !13
  call void (ptr, i32, ptr, ...) @av_log(ptr noundef %37, i32 noundef 16, ptr noundef @.str.3, i32 noundef %38)
  store i32 -1094995529, ptr %5, align 4
  store i32 1, ptr %12, align 4
  br label %54

39:                                               ; preds = %21
  %40 = load i32, ptr %11, align 4, !tbaa !13
  %41 = icmp ne i32 %40, 0
  br i1 %41, label %42, label %52

42:                                               ; preds = %39
  %43 = load i32, ptr %11, align 4, !tbaa !13
  %44 = trunc i32 %43 to i8
  %45 = load ptr, ptr %6, align 8, !tbaa !41
  %46 = load i8, ptr @scan8, align 16, !tbaa !40
  %47 = zext i8 %46 to i32
  %48 = load i32, ptr %10, align 4, !tbaa !13
  %49 = add nsw i32 %47, %48
  %50 = sext i32 %49 to i64
  %51 = getelementptr inbounds i8, ptr %45, i64 %50
  store i8 %44, ptr %51, align 1, !tbaa !40
  br label %52

52:                                               ; preds = %42, %39
  br label %53

53:                                               ; preds = %52
  store i32 0, ptr %12, align 4
  br label %54

54:                                               ; preds = %53, %36
  call void @llvm.lifetime.end.p0(i64 4, ptr %11) #9
  %55 = load i32, ptr %12, align 4
  switch i32 %55, label %121 [
    i32 0, label %56
  ]

56:                                               ; preds = %54
  br label %57

57:                                               ; preds = %56
  %58 = load i32, ptr %10, align 4, !tbaa !13
  %59 = add nsw i32 %58, 1
  store i32 %59, ptr %10, align 4, !tbaa !13
  br label %18, !llvm.loop !42

60:                                               ; preds = %18
  br label %61

61:                                               ; preds = %60, %4
  %62 = load i32, ptr %9, align 4, !tbaa !13
  %63 = and i32 %62, 34952
  %64 = icmp ne i32 %63, 34952
  br i1 %64, label %65, label %120

65:                                               ; preds = %61
  store i32 0, ptr %10, align 4, !tbaa !13
  br label %66

66:                                               ; preds = %116, %65
  %67 = load i32, ptr %10, align 4, !tbaa !13
  %68 = icmp slt i32 %67, 4
  br i1 %68, label %69, label %119

69:                                               ; preds = %66
  %70 = load i32, ptr %9, align 4, !tbaa !13
  %71 = load i32, ptr %10, align 4, !tbaa !13
  %72 = sext i32 %71 to i64
  %73 = getelementptr inbounds [4 x i32], ptr @ff_h264_check_intra4x4_pred_mode.mask, i64 0, i64 %72
  %74 = load i32, ptr %73, align 4, !tbaa !13
  %75 = and i32 %70, %74
  %76 = icmp ne i32 %75, 0
  br i1 %76, label %115, label %77

77:                                               ; preds = %69
  call void @llvm.lifetime.start.p0(i64 4, ptr %13) #9
  %78 = load ptr, ptr %6, align 8, !tbaa !41
  %79 = load i8, ptr @scan8, align 16, !tbaa !40
  %80 = zext i8 %79 to i32
  %81 = load i32, ptr %10, align 4, !tbaa !13
  %82 = mul nsw i32 8, %81
  %83 = add nsw i32 %80, %82
  %84 = sext i32 %83 to i64
  %85 = getelementptr inbounds i8, ptr %78, i64 %84
  %86 = load i8, ptr %85, align 1, !tbaa !40
  %87 = sext i8 %86 to i64
  %88 = getelementptr inbounds [12 x i8], ptr @ff_h264_check_intra4x4_pred_mode.left, i64 0, i64 %87
  %89 = load i8, ptr %88, align 1, !tbaa !40
  %90 = sext i8 %89 to i32
  store i32 %90, ptr %13, align 4, !tbaa !13
  %91 = load i32, ptr %13, align 4, !tbaa !13
  %92 = icmp slt i32 %91, 0
  br i1 %92, label %93, label %96

93:                                               ; preds = %77
  %94 = load ptr, ptr %7, align 8, !tbaa !17
  %95 = load i32, ptr %13, align 4, !tbaa !13
  call void (ptr, i32, ptr, ...) @av_log(ptr noundef %94, i32 noundef 16, ptr noundef @.str.4, i32 noundef %95)
  store i32 -1094995529, ptr %5, align 4
  store i32 1, ptr %12, align 4
  br label %112

96:                                               ; preds = %77
  %97 = load i32, ptr %13, align 4, !tbaa !13
  %98 = icmp ne i32 %97, 0
  br i1 %98, label %99, label %110

99:                                               ; preds = %96
  %100 = load i32, ptr %13, align 4, !tbaa !13
  %101 = trunc i32 %100 to i8
  %102 = load ptr, ptr %6, align 8, !tbaa !41
  %103 = load i8, ptr @scan8, align 16, !tbaa !40
  %104 = zext i8 %103 to i32
  %105 = load i32, ptr %10, align 4, !tbaa !13
  %106 = mul nsw i32 8, %105
  %107 = add nsw i32 %104, %106
  %108 = sext i32 %107 to i64
  %109 = getelementptr inbounds i8, ptr %102, i64 %108
  store i8 %101, ptr %109, align 1, !tbaa !40
  br label %110

110:                                              ; preds = %99, %96
  br label %111

111:                                              ; preds = %110
  store i32 0, ptr %12, align 4
  br label %112

112:                                              ; preds = %111, %93
  call void @llvm.lifetime.end.p0(i64 4, ptr %13) #9
  %113 = load i32, ptr %12, align 4
  switch i32 %113, label %121 [
    i32 0, label %114
  ]

114:                                              ; preds = %112
  br label %115

115:                                              ; preds = %114, %69
  br label %116

116:                                              ; preds = %115
  %117 = load i32, ptr %10, align 4, !tbaa !13
  %118 = add nsw i32 %117, 1
  store i32 %118, ptr %10, align 4, !tbaa !13
  br label %66, !llvm.loop !43

119:                                              ; preds = %66
  br label %120

120:                                              ; preds = %119, %61
  store i32 0, ptr %5, align 4
  store i32 1, ptr %12, align 4
  br label %121

121:                                              ; preds = %120, %112, %54
  call void @llvm.lifetime.end.p0(i64 4, ptr %10) #9
  %122 = load i32, ptr %5, align 4
  ret i32 %122
}