; Function Attrs: nounwind uwtable
define range(i32 -1094995529, 1) i32 @ff_h264_check_intra4x4_pred_mode(ptr noundef captures(none) %0, ptr noundef %1, i32 noundef %2, i32 noundef %3) local_unnamed_addr #0 {
  %5 = and i32 %2, 32768
  %.not = icmp eq i32 %5, 0
  br i1 %.not, label %.preheader45, label %.loopexit46

.preheader45:                                     ; preds = %4
  %invariant.gep = getelementptr inbounds nuw i8, ptr %0, i64 12
  br label %6

6:                                                ; preds = %.preheader45, %16
  %indvars.iv = phi i64 [ 0, %.preheader45 ], [ %indvars.iv.next, %16 ]
  %gep = getelementptr inbounds nuw i8, ptr %invariant.gep, i64 %indvars.iv
  %7 = load i8, ptr %gep, align 1, !tbaa !16
  %8 = sext i8 %7 to i64
  %9 = getelementptr inbounds [12 x i8], ptr @ff_h264_check_intra4x4_pred_mode.top, i64 0, i64 %8
  %10 = load i8, ptr %9, align 1, !tbaa !16
  %11 = shl nuw i64 1, %8
  %12 = and i64 %11, 249
  %.not37 = icmp eq i64 %12, 0
  br i1 %.not37, label %13, label %.loopexit.sink.split

13:                                               ; preds = %6
  %14 = and i64 %11, 3842
  %.not38.not = icmp eq i64 %14, 0
  br i1 %.not38.not, label %15, label %16

15:                                               ; preds = %13
  store i8 %10, ptr %gep, align 1, !tbaa !16
  br label %16

16:                                               ; preds = %15, %13
  %indvars.iv.next = add nuw nsw i64 %indvars.iv, 1
  %exitcond.not = icmp eq i64 %indvars.iv.next, 4
  br i1 %exitcond.not, label %.loopexit46, label %6, !llvm.loop !31

.loopexit46:                                      ; preds = %16, %4
  %17 = and i32 %3, 34952
  %.not39 = icmp eq i32 %17, 34952
  br i1 %.not39, label %.loopexit, label %.preheader

.preheader:                                       ; preds = %.loopexit46
  %invariant.gep49 = getelementptr inbounds nuw i8, ptr %0, i64 12
  br label %18

18:                                               ; preds = %.preheader, %.thread44
  %indvars.iv55 = phi i64 [ 0, %.preheader ], [ %indvars.iv.next56, %.thread44 ]
  %19 = getelementptr inbounds nuw [4 x i32], ptr @ff_h264_check_intra4x4_pred_mode.mask, i64 0, i64 %indvars.iv55
  %20 = load i32, ptr %19, align 4, !tbaa !25
  %21 = and i32 %20, %3
  %.not40 = icmp eq i32 %21, 0
  br i1 %.not40, label %22, label %.thread44

22:                                               ; preds = %18
  %23 = shl nuw nsw i64 %indvars.iv55, 3
  %gep50 = getelementptr inbounds nuw i8, ptr %invariant.gep49, i64 %23
  %24 = load i8, ptr %gep50, align 1, !tbaa !16
  %25 = sext i8 %24 to i64
  %26 = getelementptr inbounds [12 x i8], ptr @ff_h264_check_intra4x4_pred_mode.left, i64 0, i64 %25
  %27 = load i8, ptr %26, align 1, !tbaa !16
  %28 = shl nuw i64 1, %25
  %29 = and i64 %28, 370
  %.not41 = icmp eq i64 %29, 0
  br i1 %.not41, label %30, label %.loopexit.sink.split

30:                                               ; preds = %22
  %31 = and i64 %28, 3209
  %.not42.not = icmp eq i64 %31, 0
  br i1 %.not42.not, label %32, label %.thread44

32:                                               ; preds = %30
  store i8 %27, ptr %gep50, align 1, !tbaa !16
  br label %.thread44

.thread44:                                        ; preds = %30, %32, %18
  %indvars.iv.next56 = add nuw nsw i64 %indvars.iv55, 1
  %exitcond58.not = icmp eq i64 %indvars.iv.next56, 4
  br i1 %exitcond58.not, label %.loopexit, label %18, !llvm.loop !32

.loopexit.sink.split:                             ; preds = %6, %22
  %.lcssa.sink = phi i8 [ %27, %22 ], [ %10, %6 ]
  %.str.4.sink = phi ptr [ @.str.4, %22 ], [ @.str.3, %6 ]
  %33 = sext i8 %.lcssa.sink to i32
  tail call void (ptr, i32, ptr, ...) @av_log(ptr noundef %1, i32 noundef 16, ptr noundef nonnull %.str.4.sink, i32 noundef %33) #8
  br label %.loopexit

.loopexit:                                        ; preds = %.thread44, %.loopexit.sink.split, %.loopexit46
  %.3 = phi i32 [ 0, %.loopexit46 ], [ -1094995529, %.loopexit.sink.split ], [ 0, %.thread44 ]
  ret i32 %.3
}